target datalayout = "e-m:e-p270:32:32-p271:32:32-p272:64:64-i64:64-i128:128-f80:128-n8:16:32:64-S128"
target triple = "x86_64-pc-linux-gnu"

%struct.gmx_ana_selvalue_t = type { i32, i32, %union.anon, i32 }
%union.anon = type { ptr }
%struct.gmx_ana_pos_t = type <{ ptr, ptr, ptr, %struct.gmx_ana_indexmap_t, i32, [4 x i8] }>
%struct.gmx_ana_indexmap_t = type { i32, ptr, ptr, %struct.t_blocka, ptr, %struct.t_blocka, i8 }
%struct.t_blocka = type { i32, ptr, i32, ptr, i32, i32 }

; Function Attrs: mustprogress nounwind uwtable
define internal void @_ZL14evaluate_coordPfP13gmx_ana_pos_ti(ptr noundef %0, ptr noundef %1, i32 noundef %2) #2 {
  %4 = alloca ptr, align 8
  %5 = alloca ptr, align 8
  %6 = alloca i32, align 4
  %7 = alloca i32, align 4
  store ptr %0, ptr %4, align 8, !tbaa !295
  store ptr %1, ptr %5, align 8, !tbaa !287
  store i32 %2, ptr %6, align 4, !tbaa !22
  call void @llvm.lifetime.start.p0(i64 4, ptr %7) #18
  store i32 0, ptr %7, align 4, !tbaa !22
  br label %8

8:                                                ; preds = %29, %3
  %9 = load i32, ptr %7, align 4, !tbaa !22
  %10 = load ptr, ptr %5, align 8, !tbaa !287
  %11 = call noundef i32 @_ZNK13gmx_ana_pos_t5countEv(ptr noundef nonnull align 8 dereferenceable(148) %10)
  %12 = icmp slt i32 %9, %11
  br i1 %12, label %14, label %13

13:                                               ; preds = %8
  call void @llvm.lifetime.end.p0(i64 4, ptr %7) #18
  br label %32

14:                                               ; preds = %8
  %15 = load ptr, ptr %5, align 8, !tbaa !287
  %16 = getelementptr inbounds nuw %struct.gmx_ana_pos_t, ptr %15, i32 0, i32 0
  %17 = load ptr, ptr %16, align 8, !tbaa !296
  %18 = load i32, ptr %7, align 4, !tbaa !22
  %19 = sext i32 %18 to i64
  %20 = getelementptr inbounds [3 x float], ptr %17, i64 %19
  %21 = load i32, ptr %6, align 4, !tbaa !22
  %22 = sext i32 %21 to i64
  %23 = getelementptr inbounds [3 x float], ptr %20, i64 0, i64 %22
  %24 = load float, ptr %23, align 4, !tbaa !273
  %25 = load ptr, ptr %4, align 8, !tbaa !295
  %26 = load i32, ptr %7, align 4, !tbaa !22
  %27 = sext i32 %26 to i64
  %28 = getelementptr inbounds float, ptr %25, i64 %27
  store float %24, ptr %28, align 4, !tbaa !273
  br label %29

29:                                               ; preds = %14
  %30 = load i32, ptr %7, align 4, !tbaa !22
  %31 = add nsw i32 %30, 1
  store i32 %31, ptr %7, align 4, !tbaa !22
  br label %8, !llvm.loop !297

32:                                               ; preds = %13
  ret void
}

; Function Attrs: mustprogress nounwind uwtable
define linkonce_odr noundef i32 @_ZNK13gmx_ana_pos_t5countEv(ptr noundef nonnull align 8 dereferenceable(148) %0) #2 comdat align 2 {
  %2 = alloca ptr, align 8
  store ptr %0, ptr %2, align 8, !tbaa !287
  %3 = load ptr, ptr %2, align 8
  %4 = getelementptr inbounds nuw %struct.gmx_ana_pos_t, ptr %3, i32 0, i32 3
  %5 = getelementptr inbounds nuw %struct.gmx_ana_indexmap_t, ptr %4, i32 0, i32 3
  %6 = getelementptr inbounds nuw %struct.t_blocka, ptr %5, i32 0, i32 0
  %7 = load i32, ptr %6, align 8, !tbaa !289
  ret i32 %7
}

; Function Attrs: mustprogress nounwind uwtable
define internal void @_ZL10evaluate_yRKN3gmx20SelMethodEvalContextEP13gmx_ana_pos_tP18gmx_ana_selvalue_tPv(ptr noundef nonnull align 8 dereferenceable(24) %0, ptr noundef %1, ptr noundef %2, ptr noundef %3) #2 {
  %5 = alloca ptr, align 8
  %6 = alloca ptr, align 8
  %7 = alloca ptr, align 8
  %8 = alloca ptr, align 8
  store ptr %0, ptr %5, align 8, !tbaa !4
  store ptr %1, ptr %6, align 8, !tbaa !287
  store ptr %2, ptr %7, align 8, !tbaa !11
  store ptr %3, ptr %8, align 8, !tbaa !13
  %9 = load ptr, ptr %6, align 8, !tbaa !287
  %10 = call noundef i32 @_ZNK13gmx_ana_pos_t5countEv(ptr noundef nonnull align 8 dereferenceable(148) %9)
  %11 = load ptr, ptr %7, align 8, !tbaa !11
  %12 = getelementptr inbounds nuw %struct.gmx_ana_selvalue_t, ptr %11, i32 0, i32 1
  store i32 %10, ptr %12, align 4, !tbaa !19
  %13 = load ptr, ptr %7, align 8, !tbaa !11
  %14 = getelementptr inbounds nuw %struct.gmx_ana_selvalue_t, ptr %13, i32 0, i32 2
  %15 = load ptr, ptr %14, align 8, !tbaa !14
  %16 = load ptr, ptr %6, align 8, !tbaa !287
  call void @_ZL14evaluate_coordPfP13gmx_ana_pos_ti(ptr noundef %15, ptr noundef %16, i32 noundef 1)
  ret void
}